target datalayout = "e-m:e-p270:32:32-p271:32:32-p272:64:64-i64:64-i128:128-f80:128-n8:16:32:64-S128"
target triple = "x86_64-pc-linux-gnu"

%struct.GetBitContext = type { ptr, ptr, i32, i32, i32 }

; Function Attrs: alwaysinline nounwind willreturn memory(none) uwtable
define internal i32 @av_clip_c(i32 noundef %0, i32 noundef %1, i32 noundef %2) #6 {
  %4 = alloca i32, align 4
  %5 = alloca i32, align 4
  %6 = alloca i32, align 4
  %7 = alloca i32, align 4
  store i32 %0, ptr %5, align 4, !tbaa !9
  store i32 %1, ptr %6, align 4, !tbaa !9
  store i32 %2, ptr %7, align 4, !tbaa !9
  %8 = load i32, ptr %5, align 4, !tbaa !9
  %9 = load i32, ptr %6, align 4, !tbaa !9
  %10 = icmp slt i32 %8, %9
  br i1 %10, label %11, label %13

11:                                               ; preds = %3
  %12 = load i32, ptr %6, align 4, !tbaa !9
  store i32 %12, ptr %4, align 4
  br label %21

13:                                               ; preds = %3
  %14 = load i32, ptr %5, align 4, !tbaa !9
  %15 = load i32, ptr %7, align 4, !tbaa !9
  %16 = icmp sgt i32 %14, %15
  br i1 %16, label %17, label %19

17:                                               ; preds = %13
  %18 = load i32, ptr %7, align 4, !tbaa !9
  store i32 %18, ptr %4, align 4
  br label %21

19:                                               ; preds = %13
  %20 = load i32, ptr %5, align 4, !tbaa !9
  store i32 %20, ptr %4, align 4
  br label %21

21:                                               ; preds = %19, %17, %11
  %22 = load i32, ptr %4, align 4
  ret i32 %22
}

; Function Attrs: inlinehint nounwind uwtable
define internal i32 @get_bits_count(ptr noundef %0) #2 {
  %2 = alloca ptr, align 8
  store ptr %0, ptr %2, align 8, !tbaa !13
  %3 = load ptr, ptr %2, align 8, !tbaa !13
  %4 = getelementptr inbounds nuw %struct.GetBitContext, ptr %3, i32 0, i32 2
  %5 = load i32, ptr %4, align 8, !tbaa !35
  ret i32 %5
}

; Function Attrs: inlinehint nounwind uwtable
define internal void @skip_bits_long(ptr noundef %0, i32 noundef %1) #2 {
  %3 = alloca ptr, align 8
  %4 = alloca i32, align 4
  store ptr %0, ptr %3, align 8, !tbaa !13
  store i32 %1, ptr %4, align 4, !tbaa !9
  %5 = load i32, ptr %4, align 4, !tbaa !9
  %6 = load ptr, ptr %3, align 8, !tbaa !13
  %7 = getelementptr inbounds nuw %struct.GetBitContext, ptr %6, i32 0, i32 2
  %8 = load i32, ptr %7, align 8, !tbaa !35
  %9 = sub nsw i32 0, %8
  %10 = load ptr, ptr %3, align 8, !tbaa !13
  %11 = getelementptr inbounds nuw %struct.GetBitContext, ptr %10, i32 0, i32 4
  %12 = load i32, ptr %11, align 8, !tbaa !37
  %13 = load ptr, ptr %3, align 8, !tbaa !13
  %14 = getelementptr inbounds nuw %struct.GetBitContext, ptr %13, i32 0, i32 2
  %15 = load i32, ptr %14, align 8, !tbaa !35
  %16 = sub nsw i32 %12, %15
  %17 = call i32 @av_clip_c(i32 noundef %5, i32 noundef %9, i32 noundef %16) #10
  %18 = load ptr, ptr %3, align 8, !tbaa !13
  %19 = getelementptr inbounds nuw %struct.GetBitContext, ptr %18, i32 0, i32 2
  %20 = load i32, ptr %19, align 8, !tbaa !35
  %21 = add nsw i32 %20, %17
  store i32 %21, ptr %19, align 8, !tbaa !35
  ret void
}

; Function Attrs: inlinehint nounwind uwtable
define internal i32 @get_bits_left(ptr noundef %0) #2 {
  %2 = alloca ptr, align 8
  store ptr %0, ptr %2, align 8, !tbaa !13
  %3 = load ptr, ptr %2, align 8, !tbaa !13
  %4 = getelementptr inbounds nuw %struct.GetBitContext, ptr %3, i32 0, i32 3
  %5 = load i32, ptr %4, align 4, !tbaa !42
  %6 = load ptr, ptr %2, align 8, !tbaa !13
  %7 = call i32 @get_bits_count(ptr noundef %6)
  %8 = sub nsw i32 %5, %7
  ret i32 %8
}

; Function Attrs: nounwind uwtable
define internal i32 @jpegxl_skip_extensions(ptr noundef %0) #0 {
  %2 = alloca i32, align 4
  %3 = alloca ptr, align 8
  %4 = alloca i64, align 8
  %5 = alloca i64, align 8
  %6 = alloca i32, align 4
  %7 = alloca i32, align 4
  store ptr %0, ptr %3, align 8, !tbaa !13
  call void @llvm.lifetime.start.p0(i64 8, ptr %4) #9
  %8 = load ptr, ptr %3, align 8, !tbaa !13
  %9 = call i64 @jxl_u64(ptr noundef %8)
  store i64 %9, ptr %4, align 8, !tbaa !44
  call void @llvm.lifetime.start.p0(i64 8, ptr %5) #9
  store i64 0, ptr %5, align 8, !tbaa !44
  %10 = load ptr, ptr %3, align 8, !tbaa !13
  %11 = call i32 @get_bits_left(ptr noundef %10)
  %12 = icmp sle i32 %11, 0
  br i1 %12, label %13, label %14

13:                                               ; preds = %1
  store i32 -1397118274, ptr %2, align 4
  store i32 1, ptr %6, align 4
  br label %60

14:                                               ; preds = %1
  %15 = load i64, ptr %4, align 8, !tbaa !44
  %16 = icmp ne i64 %15, 0
  br i1 %16, label %18, label %17

17:                                               ; preds = %14
  store i32 0, ptr %2, align 4
  store i32 1, ptr %6, align 4
  br label %60

18:                                               ; preds = %14
  call void @llvm.lifetime.start.p0(i64 4, ptr %7) #9
  store i32 0, ptr %7, align 4, !tbaa !9
  br label %19

19:                                               ; preds = %41, %18
  %20 = load i32, ptr %7, align 4, !tbaa !9
  %21 = icmp slt i32 %20, 64
  br i1 %21, label %23, label %22

22:                                               ; preds = %19
  store i32 2, ptr %6, align 4
  br label %44

23:                                               ; preds = %19
  %24 = load i64, ptr %4, align 8, !tbaa !44
  %25 = load i32, ptr %7, align 4, !tbaa !9
  %26 = zext i32 %25 to i64
  %27 = shl i64 1, %26
  %28 = and i64 %24, %27
  %29 = icmp ne i64 %28, 0
  br i1 %29, label %30, label %35

30:                                               ; preds = %23
  %31 = load ptr, ptr %3, align 8, !tbaa !13
  %32 = call i64 @jxl_u64(ptr noundef %31)
  %33 = load i64, ptr %5, align 8, !tbaa !44
  %34 = add i64 %33, %32
  store i64 %34, ptr %5, align 8, !tbaa !44
  br label %35

35:                                               ; preds = %30, %23
  %36 = load ptr, ptr %3, align 8, !tbaa !13
  %37 = call i32 @get_bits_left(ptr noundef %36)
  %38 = icmp sle i32 %37, 0
  br i1 %38, label %39, label %40

39:                                               ; preds = %35
  store i32 -1397118274, ptr %2, align 4
  store i32 1, ptr %6, align 4
  br label %44

40:                                               ; preds = %35
  br label %41

41:                                               ; preds = %40
  %42 = load i32, ptr %7, align 4, !tbaa !9
  %43 = add nsw i32 %42, 1
  store i32 %43, ptr %7, align 4, !tbaa !9
  br label %19, !llvm.loop !46

44:                                               ; preds = %39, %22
  call void @llvm.lifetime.end.p0(i64 4, ptr %7) #9
  %45 = load i32, ptr %6, align 4
  switch i32 %45, label %60 [
    i32 2, label %46
  ]

46:                                               ; preds = %44
  %47 = load i64, ptr %5, align 8, !tbaa !44
  %48 = icmp ugt i64 %47, 2147483647
  br i1 %48, label %55, label %49

49:                                               ; preds = %46
  %50 = load ptr, ptr %3, align 8, !tbaa !13
  %51 = call i32 @get_bits_left(ptr noundef %50)
  %52 = sext i32 %51 to i64
  %53 = load i64, ptr %5, align 8, !tbaa !44
  %54 = icmp ule i64 %52, %53
  br i1 %54, label %55, label %56

55:                                               ; preds = %49, %46
  store i32 -1397118274, ptr %2, align 4
  store i32 1, ptr %6, align 4
  br label %60

56:                                               ; preds = %49
  %57 = load ptr, ptr %3, align 8, !tbaa !13
  %58 = load i64, ptr %5, align 8, !tbaa !44
  %59 = trunc i64 %58 to i32
  call void @skip_bits_long(ptr noundef %57, i32 noundef %59)
  store i32 0, ptr %2, align 4
  store i32 1, ptr %6, align 4
  br label %60

60:                                               ; preds = %56, %55, %44, %17, %13
  call void @llvm.lifetime.end.p0(i64 8, ptr %5) #9
  call void @llvm.lifetime.end.p0(i64 8, ptr %4) #9
  %61 = load i32, ptr %2, align 4
  ret i32 %61
}