; Function Attrs: nofree norecurse nosync nounwind memory(read, argmem: readwrite, inaccessiblemem: none) uwtable
define internal fastcc range(i32 -1397118274, 1) i32 @jpegxl_skip_extensions(ptr noundef nonnull captures(none) %0) unnamed_addr #4 {
  %2 = tail call fastcc i64 @jxl_u64(ptr noundef %0)
  %3 = getelementptr i8, ptr %0, i64 16
  %.val27 = load i32, ptr %3, align 8, !tbaa !15
  %4 = getelementptr i8, ptr %0, i64 20
  %.val28 = load i32, ptr %4, align 4, !tbaa !11
  %.not32 = icmp sgt i32 %.val28, %.val27
  br i1 %.not32, label %5, label %.thread

5:                                                ; preds = %1
  %.not = icmp eq i64 %2, 0
  br i1 %.not, label %.thread, label %.preheader

6:                                                ; preds = %12
  %indvars.iv.next = add nuw nsw i64 %indvars.iv, 1
  %exitcond = icmp eq i64 %indvars.iv.next, 64
  br i1 %exitcond, label %13, label %.preheader, !llvm.loop !37

.preheader:                                       ; preds = %5, %6
  %.val2641 = phi i32 [ %.val24, %6 ], [ %.val28, %5 ]
  %.val2539 = phi i32 [ %.val, %6 ], [ %.val27, %5 ]
  %indvars.iv = phi i64 [ %indvars.iv.next, %6 ], [ 0, %5 ]
  %.01735 = phi i64 [ %.2, %6 ], [ 0, %5 ]
  %7 = shl nuw i64 1, %indvars.iv
  %8 = and i64 %7, %2
  %.not21 = icmp eq i64 %8, 0
  br i1 %.not21, label %12, label %9

9:                                                ; preds = %.preheader
  %10 = tail call fastcc i64 @jxl_u64(ptr noundef %0)
  %11 = add i64 %10, %.01735
  %.val25.pre = load i32, ptr %3, align 8, !tbaa !15
  %.val26.pre = load i32, ptr %4, align 4, !tbaa !11
  br label %12

12:                                               ; preds = %9, %.preheader
  %.val24 = phi i32 [ %.val26.pre, %9 ], [ %.val2641, %.preheader ]
  %.val = phi i32 [ %.val25.pre, %9 ], [ %.val2539, %.preheader ]
  %.2 = phi i64 [ %11, %9 ], [ %.01735, %.preheader ]
  %.not33 = icmp sgt i32 %.val24, %.val
  br i1 %.not33, label %6, label %.thread

13:                                               ; preds = %6
  %14 = icmp ugt i64 %.2, 2147483647
  br i1 %14, label %.thread, label %15

15:                                               ; preds = %13
  %16 = sub nsw i32 %.val24, %.val
  %17 = sext i32 %16 to i64
  %.not22 = icmp ult i64 %.2, %17
  br i1 %.not22, label %18, label %.thread

18:                                               ; preds = %15
  %19 = trunc nuw nsw i64 %.2 to i32
  %20 = sub nsw i32 0, %.val
  %21 = getelementptr inbounds nuw i8, ptr %0, i64 24
  %22 = load i32, ptr %21, align 8, !tbaa !12
  %23 = sub nsw i32 %22, %.val
  %24 = icmp slt i32 %19, %20
  %..i.i = tail call i32 @llvm.smin.i32(i32 %19, i32 %23)
  %.0.i.i = select i1 %24, i32 %20, i32 %..i.i
  %25 = add nsw i32 %.0.i.i, %.val
  store i32 %25, ptr %3, align 8, !tbaa !15
  br label %.thread

.thread:                                          ; preds = %12, %15, %5, %1, %13, %18
  %.018 = phi i32 [ 0, %18 ], [ -1397118274, %13 ], [ -1397118274, %1 ], [ 0, %5 ], [ -1397118274, %15 ], [ -1397118274, %12 ]
  ret i32 %.018
}